; Function Attrs: mustprogress uwtable
define noundef nonnull align 8 dereferenceable(24) ptr @_ZNK8QuantLib17HestonSLVFDMModel10logEntriesB5cxx11Ev(ptr noundef nonnull align 8 dereferenceable(304) %this) local_unnamed_addr #8 align 2 {
entry:
  %vtable = load ptr, ptr %this, align 8, !tbaa !33
  %vfn = getelementptr inbounds i8, ptr %vtable, i64 32
  %0 = load ptr, ptr %vfn, align 8
  tail call void %0(ptr noundef nonnull align 8 dereferenceable(304) %this)
  %logEntries_ = getelementptr inbounds nuw i8, ptr %this, i64 280
  ret ptr %logEntries_
}